target datalayout = "e-m:e-p270:32:32-p271:32:32-p272:64:64-i64:64-i128:128-f80:128-n8:16:32:64-S128"
target triple = "x86_64-pc-linux-gnu"

%struct.mbedtls_mpi = type { i32, i64, ptr }

; Function Attrs: mustprogress nounwind uwtable
define hidden i32 @mbedtls_mpi_write_binary_le(ptr noundef %0, ptr noundef %1, i64 noundef %2) #0 {
  %4 = alloca i32, align 4
  %5 = alloca ptr, align 8
  %6 = alloca ptr, align 8
  %7 = alloca i64, align 8
  %8 = alloca i64, align 8
  %9 = alloca i64, align 8
  %10 = alloca i64, align 8
  %11 = alloca i32, align 4
  store ptr %0, ptr %5, align 8, !tbaa !3
  store ptr %1, ptr %6, align 8, !tbaa !26
  store i64 %2, ptr %7, align 8, !tbaa !16
  call void @llvm.lifetime.start.p0(i64 8, ptr %8) #10
  %12 = load ptr, ptr %5, align 8, !tbaa !3
  %13 = getelementptr inbounds nuw %struct.mbedtls_mpi, ptr %12, i32 0, i32 1
  %14 = load i64, ptr %13, align 8, !tbaa !13
  %15 = mul i64 %14, 8
  store i64 %15, ptr %8, align 8, !tbaa !16
  call void @llvm.lifetime.start.p0(i64 8, ptr %9) #10
  call void @llvm.lifetime.start.p0(i64 8, ptr %10) #10
  %16 = load i64, ptr %8, align 8, !tbaa !16
  %17 = load i64, ptr %7, align 8, !tbaa !16
  %18 = icmp ult i64 %16, %17
  br i1 %18, label %19, label %21

19:                                               ; preds = %3
  %20 = load i64, ptr %8, align 8, !tbaa !16
  store i64 %20, ptr %9, align 8, !tbaa !16
  br label %48

21:                                               ; preds = %3
  %22 = load i64, ptr %7, align 8, !tbaa !16
  store i64 %22, ptr %9, align 8, !tbaa !16
  %23 = load i64, ptr %9, align 8, !tbaa !16
  store i64 %23, ptr %10, align 8, !tbaa !16
  br label %24

24:                                               ; preds = %44, %21
  %25 = load i64, ptr %10, align 8, !tbaa !16
  %26 = load i64, ptr %8, align 8, !tbaa !16
  %27 = icmp ult i64 %25, %26
  br i1 %27, label %28, label %47

28:                                               ; preds = %24
  %29 = load ptr, ptr %5, align 8, !tbaa !3
  %30 = getelementptr inbounds nuw %struct.mbedtls_mpi, ptr %29, i32 0, i32 2
  %31 = load ptr, ptr %30, align 8, !tbaa !14
  %32 = load i64, ptr %10, align 8, !tbaa !16
  %33 = udiv i64 %32, 8
  %34 = getelementptr inbounds nuw i64, ptr %31, i64 %33
  %35 = load i64, ptr %34, align 8, !tbaa !16
  %36 = load i64, ptr %10, align 8, !tbaa !16
  %37 = urem i64 %36, 8
  %38 = mul i64 %37, 8
  %39 = lshr i64 %35, %38
  %40 = and i64 %39, 255
  %41 = icmp ne i64 %40, 0
  br i1 %41, label %42, label %43

42:                                               ; preds = %28
  store i32 -8, ptr %4, align 4
  store i32 1, ptr %11, align 4
  br label %85

43:                                               ; preds = %28
  br label %44

44:                                               ; preds = %43
  %45 = load i64, ptr %10, align 8, !tbaa !16
  %46 = add i64 %45, 1
  store i64 %46, ptr %10, align 8, !tbaa !16
  br label %24, !llvm.loop !38

47:                                               ; preds = %24
  br label %48

48:                                               ; preds = %47, %19
  store i64 0, ptr %10, align 8, !tbaa !16
  br label %49

49:                                               ; preds = %70, %48
  %50 = load i64, ptr %10, align 8, !tbaa !16
  %51 = load i64, ptr %9, align 8, !tbaa !16
  %52 = icmp ult i64 %50, %51
  br i1 %52, label %53, label %73

53:                                               ; preds = %49
  %54 = load ptr, ptr %5, align 8, !tbaa !3
  %55 = getelementptr inbounds nuw %struct.mbedtls_mpi, ptr %54, i32 0, i32 2
  %56 = load ptr, ptr %55, align 8, !tbaa !14
  %57 = load i64, ptr %10, align 8, !tbaa !16
  %58 = udiv i64 %57, 8
  %59 = getelementptr inbounds nuw i64, ptr %56, i64 %58
  %60 = load i64, ptr %59, align 8, !tbaa !16
  %61 = load i64, ptr %10, align 8, !tbaa !16
  %62 = urem i64 %61, 8
  %63 = mul i64 %62, 8
  %64 = lshr i64 %60, %63
  %65 = and i64 %64, 255
  %66 = trunc i64 %65 to i8
  %67 = load ptr, ptr %6, align 8, !tbaa !26
  %68 = load i64, ptr %10, align 8, !tbaa !16
  %69 = getelementptr inbounds nuw i8, ptr %67, i64 %68
  store i8 %66, ptr %69, align 1, !tbaa !21
  br label %70

70:                                               ; preds = %53
  %71 = load i64, ptr %10, align 8, !tbaa !16
  %72 = add i64 %71, 1
  store i64 %72, ptr %10, align 8, !tbaa !16
  br label %49, !llvm.loop !39

73:                                               ; preds = %49
  %74 = load i64, ptr %8, align 8, !tbaa !16
  %75 = load i64, ptr %7, align 8, !tbaa !16
  %76 = icmp ult i64 %74, %75
  br i1 %76, label %77, label %84

77:                                               ; preds = %73
  %78 = load ptr, ptr %6, align 8, !tbaa !26
  %79 = load i64, ptr %8, align 8, !tbaa !16
  %80 = getelementptr inbounds nuw i8, ptr %78, i64 %79
  %81 = load i64, ptr %7, align 8, !tbaa !16
  %82 = load i64, ptr %8, align 8, !tbaa !16
  %83 = sub i64 %81, %82
  call void @llvm.memset.p0.i64(ptr align 1 %80, i8 0, i64 %83, i1 false)
  br label %84

84:                                               ; preds = %77, %73
  store i32 0, ptr %4, align 4
  store i32 1, ptr %11, align 4
  br label %85

85:                                               ; preds = %84, %42
  call void @llvm.lifetime.end.p0(i64 8, ptr %10) #10
  call void @llvm.lifetime.end.p0(i64 8, ptr %9) #10
  call void @llvm.lifetime.end.p0(i64 8, ptr %8) #10
  %86 = load i32, ptr %4, align 4
  ret i32 %86
}