; Function Attrs: mustprogress nofree norecurse nosync nounwind memory(read, argmem: readwrite, inaccessiblemem: none) uwtable
define hidden range(i32 -8, 1) i32 @mbedtls_mpi_write_binary_le(ptr noundef readonly captures(none) %0, ptr noundef writeonly captures(none) %1, i64 noundef %2) local_unnamed_addr #10 {
  %4 = getelementptr inbounds nuw i8, ptr %0, i64 8
  %5 = load i64, ptr %4, align 8, !tbaa !12
  %6 = shl i64 %5, 3
  %7 = icmp ult i64 %6, %2
  br i1 %7, label %.loopexit, label %.preheader

.preheader:                                       ; preds = %3
  %8 = icmp ult i64 %2, %6
  br i1 %8, label %.lr.ph, label %.loopexit

.lr.ph:                                           ; preds = %.preheader
  %9 = getelementptr inbounds nuw i8, ptr %0, i64 16
  %10 = load ptr, ptr %9, align 8, !tbaa !11
  br label %13

11:                                               ; preds = %13
  %12 = add i64 %.033, 1
  %exitcond.not = icmp eq i64 %12, %6
  br i1 %exitcond.not, label %.loopexit, label %13, !llvm.loop !32

13:                                               ; preds = %.lr.ph, %11
  %.033 = phi i64 [ %2, %.lr.ph ], [ %12, %11 ]
  %14 = lshr i64 %.033, 3
  %15 = getelementptr inbounds nuw i64, ptr %10, i64 %14
  %16 = load i64, ptr %15, align 8, !tbaa !13
  %17 = shl i64 %.033, 3
  %18 = and i64 %17, 56
  %19 = shl nuw i64 255, %18
  %20 = and i64 %16, %19
  %.not = icmp eq i64 %20, 0
  br i1 %.not, label %11, label %.loopexit32

.loopexit:                                        ; preds = %11, %.preheader, %3
  %.026 = phi i64 [ %6, %3 ], [ %2, %.preheader ], [ %2, %11 ]
  %.not36 = icmp eq i64 %.026, 0
  br i1 %.not36, label %._crit_edge, label %.lr.ph35

.lr.ph35:                                         ; preds = %.loopexit
  %21 = getelementptr inbounds nuw i8, ptr %0, i64 16
  br label %22

22:                                               ; preds = %.lr.ph35, %22
  %.134 = phi i64 [ 0, %.lr.ph35 ], [ %32, %22 ]
  %23 = load ptr, ptr %21, align 8, !tbaa !11
  %24 = lshr i64 %.134, 3
  %25 = getelementptr inbounds nuw i64, ptr %23, i64 %24
  %26 = load i64, ptr %25, align 8, !tbaa !13
  %27 = shl i64 %.134, 3
  %28 = and i64 %27, 56
  %29 = lshr i64 %26, %28
  %30 = trunc i64 %29 to i8
  %31 = getelementptr inbounds nuw i8, ptr %1, i64 %.134
  store i8 %30, ptr %31, align 1, !tbaa !21
  %32 = add nuw i64 %.134, 1
  %exitcond37.not = icmp eq i64 %32, %.026
  br i1 %exitcond37.not, label %._crit_edge, label %22, !llvm.loop !33

._crit_edge:                                      ; preds = %22, %.loopexit
  br i1 %7, label %33, label %.loopexit32

33:                                               ; preds = %._crit_edge
  %34 = getelementptr inbounds nuw i8, ptr %1, i64 %6
  %35 = sub nuw i64 %2, %6
  tail call void @llvm.memset.p0.i64(ptr align 1 %34, i8 0, i64 %35, i1 false)
  br label %.loopexit32

.loopexit32:                                      ; preds = %13, %._crit_edge, %33
  %.027 = phi i32 [ 0, %33 ], [ 0, %._crit_edge ], [ -8, %13 ]
  ret i32 %.027
}